target datalayout = "e-m:e-p270:32:32-p271:32:32-p272:64:64-i64:64-i128:128-f80:128-n8:16:32:64-S128"
target triple = "x86_64-pc-linux-gnu"

%struct.timeval = type { i64, i64 }
%union.pthread_mutex_t = type { %struct.__pthread_mutex_s }
%struct.__pthread_mutex_s = type { i32, i32, i32, i32, i32, i16, i16, %struct.__pthread_internal_list }
%struct.__pthread_internal_list = type { ptr, ptr }
%struct.event = type { %struct.event_callback, %union.anon.1, i32, ptr, %union.anon.3, i16, i16, %struct.timeval }
%struct.event_callback = type { %struct.anon.0, i16, i8, i8, %union.anon, ptr }
%struct.anon.0 = type { ptr, ptr }
%union.anon = type { ptr }
%union.anon.1 = type { %struct.anon.2 }
%struct.anon.2 = type { ptr, ptr }
%union.anon.3 = type { %struct.anon.4 }
%struct.anon.4 = type { %struct.anon.5, %struct.timeval }
%struct.anon.5 = type { ptr, ptr }
%struct.LIBEVENT_THREAD = type { i64, ptr, %struct.thread_notify, %struct.thread_notify, %union.pthread_mutex_t, %struct.iop_head_s, i32, i32, i32, %struct.thread_stats, [3 x %struct.io_queue_s], ptr, ptr, ptr, ptr, ptr, ptr, ptr, i32 }
%struct.thread_notify = type { %struct.event, i32 }
%struct.iop_head_s = type { ptr, ptr }
%struct.thread_stats = type { %union.pthread_mutex_t, i64, i64, i64, i64, i64, i64, i64, i64, i64, i64, i64, i64, i64, i64, i64, i64, i64, i64, i64, i64, i64, i64, i64, i64, i64, i64, i64, i64, i64, i64, [64 x %struct.slab_stats], [256 x i64], i64, i64, i64 }
%struct.slab_stats = type { i64, i64, i64, i64, i64, i64, i64, i64 }
%struct.io_queue_s = type { ptr, %struct.iop_head_s, ptr, i32 }

; Function Attrs: nounwind uwtable
define dso_local void @thread_io_queue_submit(ptr noundef %0) #0 {
  %2 = alloca ptr, align 8
  %3 = alloca ptr, align 8
  store ptr %0, ptr %2, align 8, !tbaa !68
  %4 = load ptr, ptr %2, align 8, !tbaa !68
  %5 = getelementptr inbounds nuw %struct.LIBEVENT_THREAD, ptr %4, i32 0, i32 8
  store i32 0, ptr %5, align 8, !tbaa !87
  call void @llvm.lifetime.start.p0(i64 8, ptr %3) #15
  %6 = load ptr, ptr %2, align 8, !tbaa !68
  %7 = getelementptr inbounds nuw %struct.LIBEVENT_THREAD, ptr %6, i32 0, i32 10
  %8 = getelementptr inbounds [3 x %struct.io_queue_s], ptr %7, i64 0, i64 0
  store ptr %8, ptr %3, align 8, !tbaa !91
  br label %9

9:                                                ; preds = %27, %1
  %10 = load ptr, ptr %3, align 8, !tbaa !91
  %11 = getelementptr inbounds nuw %struct.io_queue_s, ptr %10, i32 0, i32 3
  %12 = load i32, ptr %11, align 8, !tbaa !93
  %13 = icmp ne i32 %12, 0
  br i1 %13, label %15, label %14

14:                                               ; preds = %9
  call void @llvm.lifetime.end.p0(i64 8, ptr %3) #15
  br label %30

15:                                               ; preds = %9
  %16 = load ptr, ptr %3, align 8, !tbaa !91
  %17 = getelementptr inbounds nuw %struct.io_queue_s, ptr %16, i32 0, i32 1
  %18 = getelementptr inbounds nuw %struct.iop_head_s, ptr %17, i32 0, i32 0
  %19 = load ptr, ptr %18, align 8, !tbaa !98
  %20 = icmp eq ptr %19, null
  br i1 %20, label %26, label %21

21:                                               ; preds = %15
  %22 = load ptr, ptr %3, align 8, !tbaa !91
  %23 = getelementptr inbounds nuw %struct.io_queue_s, ptr %22, i32 0, i32 2
  %24 = load ptr, ptr %23, align 8, !tbaa !97
  %25 = load ptr, ptr %3, align 8, !tbaa !91
  call void %24(ptr noundef %25)
  br label %26

26:                                               ; preds = %21, %15
  br label %27

27:                                               ; preds = %26
  %28 = load ptr, ptr %3, align 8, !tbaa !91
  %29 = getelementptr inbounds nuw %struct.io_queue_s, ptr %28, i32 1
  store ptr %29, ptr %3, align 8, !tbaa !91
  br label %9, !llvm.loop !101

30:                                               ; preds = %14
  ret void
}