; Function Attrs: nounwind uwtable
define dso_local void @thread_io_queue_submit(ptr noundef initializes((352, 356)) %0) local_unnamed_addr #1 {
  %2 = getelementptr inbounds nuw i8, ptr %0, i64 352
  store i32 0, ptr %2, align 8, !tbaa !95
  %3 = getelementptr inbounds nuw i8, ptr %0, i64 6840
  %4 = load i32, ptr %3, align 8, !tbaa !96
  %.not7 = icmp eq i32 %4, 0
  br i1 %.not7, label %._crit_edge, label %.lr.ph.preheader

.lr.ph.preheader:                                 ; preds = %1
  %5 = getelementptr inbounds nuw i8, ptr %0, i64 6808
  br label %.lr.ph

._crit_edge:                                      ; preds = %12, %1
  ret void

.lr.ph:                                           ; preds = %.lr.ph.preheader, %12
  %.08 = phi ptr [ %13, %12 ], [ %5, %.lr.ph.preheader ]
  %6 = getelementptr inbounds nuw i8, ptr %.08, i64 8
  %7 = load ptr, ptr %6, align 8, !tbaa !98
  %8 = icmp eq ptr %7, null
  br i1 %8, label %12, label %9

9:                                                ; preds = %.lr.ph
  %10 = getelementptr inbounds nuw i8, ptr %.08, i64 24
  %11 = load ptr, ptr %10, align 8, !tbaa !99
  tail call void %11(ptr noundef nonnull %.08) #34
  br label %12

12:                                               ; preds = %.lr.ph, %9
  %13 = getelementptr inbounds nuw i8, ptr %.08, i64 40
  %14 = getelementptr inbounds nuw i8, ptr %.08, i64 72
  %15 = load i32, ptr %14, align 8, !tbaa !96
  %.not = icmp eq i32 %15, 0
  br i1 %.not, label %._crit_edge, label %.lr.ph, !llvm.loop !100
}